; Function Attrs: mustprogress uwtable
define void @_ZN18ForceHelperBuffers6resizeEi(ptr noundef nonnull align 8 dereferenceable(56) %0, i32 noundef %1) local_unnamed_addr #1 align 2 {
  %3 = load i8, ptr %0, align 8, !tbaa !16, !range !34, !noundef !35
  %4 = trunc nuw i8 %3 to i1
  br i1 %4, label %5, label %8

5:                                                ; preds = %2
  %6 = getelementptr inbounds nuw i8, ptr %0, i64 8
  %7 = sext i32 %1 to i64
  tail call void @_ZNSt6vectorIN3gmx11BasicVectorIfEESaIS2_EE6resizeEm(ptr noundef nonnull align 8 dereferenceable(24) %6, i64 noundef %7)
  br label %8

8:                                                ; preds = %5, %2
  ret void
}